target datalayout = "e-m:e-p270:32:32-p271:32:32-p272:64:64-i64:64-i128:128-f80:128-n8:16:32:64-S128"
target triple = "x86_64-pc-linux-gnu"

%struct.jv = type { i8, i8, i16, i32, %union.anon }
%union.anon = type { ptr }
%struct.jv_refcnt = type { i32 }
%struct.decNumber = type { i32, i32, i8, [1 x i16] }
%struct.jvp_literal_number = type { %struct.jv_refcnt, double, ptr, %struct.decNumber }

; Function Attrs: nounwind uwtable
define internal ptr @jvp_dec_number_ptr(i64 %0, ptr %1) #0 {
  %3 = alloca %struct.jv, align 8
  %4 = getelementptr inbounds nuw { i64, ptr }, ptr %3, i32 0, i32 0
  store i64 %0, ptr %4, align 8
  %5 = getelementptr inbounds nuw { i64, ptr }, ptr %3, i32 0, i32 1
  store ptr %1, ptr %5, align 8
  %6 = getelementptr inbounds nuw %struct.jv, ptr %3, i32 0, i32 4
  %7 = load ptr, ptr %6, align 8, !tbaa !12
  %8 = getelementptr inbounds nuw %struct.jvp_literal_number, ptr %7, i32 0, i32 3
  ret ptr %8
}

; Function Attrs: nounwind uwtable
define dso_local i32 @jvp_number_is_nan(i64 %0, ptr %1) #0 {
  %3 = alloca i32, align 4
  %4 = alloca %struct.jv, align 8
  %5 = alloca ptr, align 8
  %6 = getelementptr inbounds nuw { i64, ptr }, ptr %4, i32 0, i32 0
  store i64 %0, ptr %6, align 8
  %7 = getelementptr inbounds nuw { i64, ptr }, ptr %4, i32 0, i32 1
  store ptr %1, ptr %7, align 8
  %8 = getelementptr inbounds nuw %struct.jv, ptr %4, i32 0, i32 0
  %9 = load i8, ptr %8, align 8, !tbaa !4
  %10 = zext i8 %9 to i32
  %11 = icmp eq i32 %10, 148
  br i1 %11, label %12, label %25

12:                                               ; preds = %2
  call void @llvm.lifetime.start.p0(i64 8, ptr %5) #11
  %13 = getelementptr inbounds nuw { i64, ptr }, ptr %4, i32 0, i32 0
  %14 = load i64, ptr %13, align 8
  %15 = getelementptr inbounds nuw { i64, ptr }, ptr %4, i32 0, i32 1
  %16 = load ptr, ptr %15, align 8
  %17 = call ptr @jvp_dec_number_ptr(i64 %14, ptr %16)
  store ptr %17, ptr %5, align 8, !tbaa !14
  %18 = load ptr, ptr %5, align 8, !tbaa !14
  %19 = getelementptr inbounds nuw %struct.decNumber, ptr %18, i32 0, i32 2
  %20 = load i8, ptr %19, align 4, !tbaa !22
  %21 = zext i8 %20 to i32
  %22 = and i32 %21, 48
  %23 = icmp ne i32 %22, 0
  %24 = zext i1 %23 to i32
  store i32 %24, ptr %3, align 4
  call void @llvm.lifetime.end.p0(i64 8, ptr %5) #11
  br label %30

25:                                               ; preds = %2
  %26 = getelementptr inbounds nuw %struct.jv, ptr %4, i32 0, i32 4
  %27 = load double, ptr %26, align 8, !tbaa !12
  %28 = call i1 @llvm.is.fpclass.f64(double %27, i32 3)
  %29 = zext i1 %28 to i32
  store i32 %29, ptr %3, align 4
  br label %30

30:                                               ; preds = %25, %12
  %31 = load i32, ptr %3, align 4
  ret i32 %31
}