; Function Attrs: mustprogress nofree norecurse nosync nounwind willreturn memory(argmem: read) uwtable
define dso_local range(i32 0, 2) i32 @jvp_number_is_nan(i64 %0, ptr %1) local_unnamed_addr #11 {
  %3 = and i64 %0, 255
  %4 = icmp eq i64 %3, 148
  br i1 %4, label %5, label %10

5:                                                ; preds = %2
  %6 = getelementptr inbounds nuw i8, ptr %1, i64 32
  %7 = load i8, ptr %6, align 4, !tbaa !22
  %8 = and i8 %7, 48
  %9 = icmp ne i8 %8, 0
  br label %14

10:                                               ; preds = %2
  %11 = ptrtoint ptr %1 to i64
  %12 = bitcast i64 %11 to double
  %13 = fcmp uno double %12, 0.000000e+00
  br label %14

14:                                               ; preds = %10, %5
  %.0.in = phi i1 [ %9, %5 ], [ %13, %10 ]
  %.0 = zext i1 %.0.in to i32
  ret i32 %.0
}